target datalayout = "e-m:e-p270:32:32-p271:32:32-p272:64:64-i64:64-i128:128-f80:128-n8:16:32:64-S128"
target triple = "x86_64-pc-linux-gnu"

%"class.std::__shared_count" = type { ptr }
%"class.std::__cxx11::basic_string" = type { %"struct.std::__cxx11::basic_string<char>::_Alloc_hider", i64, %union.anon }
%"struct.std::__cxx11::basic_string<char>::_Alloc_hider" = type { ptr }
%union.anon = type { i64, [8 x i8] }
%"class.cv::Size_" = type { i32, i32 }
%"class.cv::detail::tracking::TrackerStateEstimatorAdaBoosting" = type { %"class.cv::detail::tracking::TrackerStateEstimator", %"struct.cv::Ptr.4", i32, i32, i32, i8, %"class.cv::Size_", %"class.cv::Rect_", %"class.std::vector", %"class.std::vector", %"class.std::vector.11" }
%"class.cv::detail::tracking::TrackerStateEstimator" = type { ptr, %"class.std::__cxx11::basic_string" }
%"struct.cv::Ptr.4" = type { %"class.std::shared_ptr.5" }
%"class.std::shared_ptr.5" = type { %"class.std::__shared_ptr.6" }
%"class.std::__shared_ptr.6" = type { ptr, %"class.std::__shared_count" }
%"class.cv::Rect_" = type { i32, i32, i32, i32 }
%"class.std::vector" = type { %"struct.std::_Vector_base" }
%"struct.std::_Vector_base" = type { %"struct.std::_Vector_base<int, std::allocator<int>>::_Vector_impl" }
%"struct.std::_Vector_base<int, std::allocator<int>>::_Vector_impl" = type { %"struct.std::_Vector_base<int, std::allocator<int>>::_Vector_impl_data" }
%"struct.std::_Vector_base<int, std::allocator<int>>::_Vector_impl_data" = type { ptr, ptr, ptr }
%"class.std::vector.11" = type { %"struct.std::_Vector_base.12" }
%"struct.std::_Vector_base.12" = type { %"struct.std::_Vector_base<std::pair<cv::Ptr<cv::detail::tracking::TrackerTargetState>, float>, std::allocator<std::pair<cv::Ptr<cv::detail::tracking::TrackerTargetState>, float>>>::_Vector_impl" }
%"struct.std::_Vector_base<std::pair<cv::Ptr<cv::detail::tracking::TrackerTargetState>, float>, std::allocator<std::pair<cv::Ptr<cv::detail::tracking::TrackerTargetState>, float>>>::_Vector_impl" = type { %"struct.std::_Vector_base<std::pair<cv::Ptr<cv::detail::tracking::TrackerTargetState>, float>, std::allocator<std::pair<cv::Ptr<cv::detail::tracking::TrackerTargetState>, float>>>::_Vector_impl_data" }
%"struct.std::_Vector_base<std::pair<cv::Ptr<cv::detail::tracking::TrackerTargetState>, float>, std::allocator<std::pair<cv::Ptr<cv::detail::tracking::TrackerTargetState>, float>>>::_Vector_impl_data" = type { ptr, ptr, ptr }

; Function Attrs: mustprogress nounwind uwtable
define { i64, i64 } @_ZNK2cv6detail8tracking32TrackerStateEstimatorAdaBoosting12getSampleROIEv(ptr noundef nonnull align 8 dereferenceable(168) %0) #7 align 2 {
  %2 = alloca %"class.cv::Rect_", align 4
  %3 = alloca ptr, align 8
  store ptr %0, ptr %3, align 8
  %4 = load ptr, ptr %3, align 8
  %5 = getelementptr inbounds %"class.cv::detail::tracking::TrackerStateEstimatorAdaBoosting", ptr %4, i32 0, i32 7
  call void @llvm.memcpy.p0.p0.i64(ptr align 4 %2, ptr align 8 %5, i64 16, i1 false)
  %6 = load { i64, i64 }, ptr %2, align 4
  ret { i64, i64 } %6
}